target datalayout = "e-m:e-p270:32:32-p271:32:32-p272:64:64-i64:64-i128:128-f80:128-n8:16:32:64-S128"
target triple = "x86_64-pc-linux-gnu"

%"class.ozz::io::File" = type { %"class.ozz::io::Stream", ptr }
%"class.ozz::io::Stream" = type { ptr }

; Function Attrs: mustprogress uwtable
define dso_local void @_ZN3ozz2io4File5CloseEv(ptr noundef nonnull align 8 dereferenceable(16) %0) #0 align 2 {
  %2 = alloca ptr, align 8
  %3 = alloca ptr, align 8
  store ptr %0, ptr %2, align 8, !tbaa !11
  %4 = load ptr, ptr %2, align 8
  %5 = getelementptr inbounds nuw %"class.ozz::io::File", ptr %4, i32 0, i32 1
  %6 = load ptr, ptr %5, align 8, !tbaa !15
  %7 = icmp ne ptr %6, null
  br i1 %7, label %8, label %14

8:                                                ; preds = %1
  call void @llvm.lifetime.start.p0(i64 8, ptr %3) #10
  %9 = getelementptr inbounds nuw %"class.ozz::io::File", ptr %4, i32 0, i32 1
  %10 = load ptr, ptr %9, align 8, !tbaa !15
  store ptr %10, ptr %3, align 8, !tbaa !9
  %11 = load ptr, ptr %3, align 8, !tbaa !9
  %12 = call i32 @fclose(ptr noundef %11)
  %13 = getelementptr inbounds nuw %"class.ozz::io::File", ptr %4, i32 0, i32 1
  store ptr null, ptr %13, align 8, !tbaa !15
  call void @llvm.lifetime.end.p0(i64 8, ptr %3) #10
  br label %14

14:                                               ; preds = %8, %1
  ret void
}